; Function Attrs: mustprogress nofree norecurse nosync nounwind willreturn memory(argmem: read) uwtable
define hidden noundef i32 @_ZN5zxing6common11StringUtils14is_gb2312_codeEPci(ptr noundef readonly captures(none) %0, i32 noundef %1) local_unnamed_addr #6 align 2 {
  %invariant.gep = getelementptr i8, ptr %0, i64 1
  %3 = icmp sgt i32 %1, 0
  br i1 %3, label %.lr.ph.lr.ph.preheader, label %.outer33._crit_edge

.lr.ph.lr.ph.preheader:                           ; preds = %2
  %4 = zext nneg i32 %1 to i64
  br label %.lr.ph.lr.ph

.lr.ph.lr.ph:                                     ; preds = %.lr.ph.lr.ph.preheader, %.outer
  %.029.ph52 = phi i32 [ %21, %.outer ], [ 0, %.lr.ph.lr.ph.preheader ]
  %.030.ph51 = phi i32 [ %.030.ph3444, %.outer ], [ 0, %.lr.ph.lr.ph.preheader ]
  %.031.ph50 = phi i32 [ %20, %.outer ], [ 0, %.lr.ph.lr.ph.preheader ]
  br label %.lr.ph

.lr.ph:                                           ; preds = %.lr.ph.lr.ph, %.outer33
  %.029.ph3545 = phi i32 [ %.029.ph52, %.lr.ph.lr.ph ], [ %24, %.outer33 ]
  %.030.ph3444 = phi i32 [ %.030.ph51, %.lr.ph.lr.ph ], [ %23, %.outer33 ]
  %5 = sext i32 %.029.ph3545 to i64
  br label %8

.outer33._crit_edge:                              ; preds = %.outer, %.outer33, %12, %2
  %.031.ph.lcssa = phi i32 [ 0, %2 ], [ %.031.ph50, %12 ], [ %.031.ph50, %.outer33 ], [ %20, %.outer ]
  %.030.ph34.lcssa38 = phi i32 [ 0, %2 ], [ %.030.ph3444, %12 ], [ %23, %.outer33 ], [ %.030.ph3444, %.outer ]
  %6 = add nsw i32 %.030.ph34.lcssa38, %.031.ph.lcssa
  %7 = icmp sgt i32 %6, 0
  br i1 %7, label %26, label %30

8:                                                ; preds = %.lr.ph, %12
  %indvars.iv = phi i64 [ %5, %.lr.ph ], [ %indvars.iv.next, %12 ]
  %9 = getelementptr inbounds i8, ptr %0, i64 %indvars.iv
  %10 = load i8, ptr %9, align 1, !tbaa !12
  %11 = icmp sgt i8 %10, -1
  br i1 %11, label %12, label %14

12:                                               ; preds = %8
  %indvars.iv.next = add nsw i64 %indvars.iv, 1
  %13 = icmp slt i64 %indvars.iv.next, %4
  br i1 %13, label %8, label %.outer33._crit_edge, !llvm.loop !16

14:                                               ; preds = %8
  %15 = trunc nsw i64 %indvars.iv to i32
  %16 = add nsw i8 %10, 95
  %or.cond = icmp ult i8 %16, 87
  br i1 %or.cond, label %17, label %.outer33

17:                                               ; preds = %14
  %gep = getelementptr i8, ptr %invariant.gep, i64 %indvars.iv
  %18 = load i8, ptr %gep, align 1, !tbaa !12
  %19 = add i8 %18, 95
  %or.cond5 = icmp ult i8 %19, 94
  br i1 %or.cond5, label %.outer, label %.outer33

.outer:                                           ; preds = %17
  %20 = add nuw nsw i32 %.031.ph50, 1
  %21 = add nsw i32 %15, 2
  %22 = icmp slt i32 %21, %1
  br i1 %22, label %.lr.ph.lr.ph, label %.outer33._crit_edge, !llvm.loop !16

.outer33:                                         ; preds = %14, %17
  %23 = add nsw i32 %.030.ph3444, 1
  %24 = add nsw i32 %15, 2
  %25 = icmp slt i32 %24, %1
  br i1 %25, label %.lr.ph, label %.outer33._crit_edge, !llvm.loop !16

26:                                               ; preds = %.outer33._crit_edge
  %27 = mul nsw i32 %.031.ph.lcssa, 100
  %28 = sdiv i32 %27, %6
  %29 = icmp eq i32 %28, 100
  %.031. = select i1 %29, i32 %.031.ph.lcssa, i32 0
  br label %30

30:                                               ; preds = %.outer33._crit_edge, %26
  %.1 = phi i32 [ %.031., %26 ], [ 0, %.outer33._crit_edge ]
  ret i32 %.1
}